(dp1
S'saved_by_info'
p2
(dp3
sS'name'
p4
S'alem_1516_leccion_03'
p5
sS'id_number'
p6
I126
sS'pretty_print'
p7
I00
sS'system'
p8
S'sage'
p9
sS'live_3D'
p10
I00
sS'last_change'
p11
(S'admin'
p12
F1444123178.6710219
tp13
s.